
bin/aes.elf:     file format elf32-littleriscv


Disassembly of section .tohost:

90000000 <tohost>:
	...

Disassembly of section .fromhost:

90000040 <fromhost>:
	...

Disassembly of section .text:

80000000 <_start>:
80000000:	01c000ef          	jal	ra,8000001c <main>
80000004:	0040006f          	j	80000008 <_exit>

80000008 <_exit>:
80000008:	10000297          	auipc	t0,0x10000
8000000c:	ff828293          	addi	t0,t0,-8 # 90000000 <tohost>
80000010:	00100313          	li	t1,1
80000014:	0062a023          	sw	t1,0(t0)
80000018:	0000006f          	j	80000018 <_exit+0x10>

8000001c <main>:
8000001c:	800007b7          	lui	a5,0x80000
80000020:	fc010113          	addi	sp,sp,-64
80000024:	80000737          	lui	a4,0x80000
80000028:	53478513          	addi	a0,a5,1332 # 80000534 <fromhost+0xf00004f4>
8000002c:	03212a23          	sw	s2,52(sp)
80000030:	55470393          	addi	t2,a4,1364 # 80000554 <fromhost+0xf0000514>
80000034:	55470913          	addi	s2,a4,1364
80000038:	02812e23          	sw	s0,60(sp)
8000003c:	02912c23          	sw	s1,56(sp)
80000040:	03312823          	sw	s3,48(sp)
80000044:	03412623          	sw	s4,44(sp)
80000048:	03512423          	sw	s5,40(sp)
8000004c:	03612223          	sw	s6,36(sp)
80000050:	03712023          	sw	s7,32(sp)
80000054:	01812e23          	sw	s8,28(sp)
80000058:	01912c23          	sw	s9,24(sp)
8000005c:	01a12a23          	sw	s10,20(sp)
80000060:	01b12823          	sw	s11,16(sp)
80000064:	53478793          	addi	a5,a5,1332
80000068:	01050e13          	addi	t3,a0,16
8000006c:	55470713          	addi	a4,a4,1364
80000070:	0007c683          	lbu	a3,0(a5)
80000074:	00178793          	addi	a5,a5,1
80000078:	00170713          	addi	a4,a4,1
8000007c:	fed70fa3          	sb	a3,-1(a4)
80000080:	fefe18e3          	bne	t3,a5,80000070 <main+0x54>
80000084:	01038393          	addi	t2,t2,16
80000088:	80000337          	lui	t1,0x80000
8000008c:	00038893          	mv	a7,t2
80000090:	00000f13          	li	t5,0
80000094:	01000813          	li	a6,16
80000098:	01010613          	addi	a2,sp,16
8000009c:	42830313          	addi	t1,t1,1064 # 80000428 <fromhost+0xf00003e8>
800000a0:	0b000f93          	li	t6,176
800000a4:	00c10693          	addi	a3,sp,12
800000a8:	00068793          	mv	a5,a3
800000ac:	00088713          	mv	a4,a7
800000b0:	ffc74583          	lbu	a1,-4(a4)
800000b4:	00178793          	addi	a5,a5,1
800000b8:	00170713          	addi	a4,a4,1
800000bc:	feb78fa3          	sb	a1,-1(a5)
800000c0:	fef618e3          	bne	a2,a5,800000b0 <main+0x94>
800000c4:	00f87713          	andi	a4,a6,15
800000c8:	00c14783          	lbu	a5,12(sp)
800000cc:	04071863          	bnez	a4,8000011c <main+0x100>
800000d0:	00d14e83          	lbu	t4,13(sp)
800000d4:	00f14703          	lbu	a4,15(sp)
800000d8:	00e14583          	lbu	a1,14(sp)
800000dc:	01e302b3          	add	t0,t1,t5
800000e0:	01d30eb3          	add	t4,t1,t4
800000e4:	000ec403          	lbu	s0,0(t4)
800000e8:	00f307b3          	add	a5,t1,a5
800000ec:	00b305b3          	add	a1,t1,a1
800000f0:	00e30733          	add	a4,t1,a4
800000f4:	1002c283          	lbu	t0,256(t0)
800000f8:	0005ce83          	lbu	t4,0(a1)
800000fc:	00074583          	lbu	a1,0(a4)
80000100:	0007c703          	lbu	a4,0(a5)
80000104:	005447b3          	xor	a5,s0,t0
80000108:	01d106a3          	sb	t4,13(sp)
8000010c:	00b10723          	sb	a1,14(sp)
80000110:	00e107a3          	sb	a4,15(sp)
80000114:	00f10623          	sb	a5,12(sp)
80000118:	001f0f13          	addi	t5,t5,1
8000011c:	00088713          	mv	a4,a7
80000120:	ff074583          	lbu	a1,-16(a4)
80000124:	00170713          	addi	a4,a4,1
80000128:	00168693          	addi	a3,a3,1
8000012c:	00b7c7b3          	xor	a5,a5,a1
80000130:	fef70fa3          	sb	a5,-1(a4)
80000134:	02d60063          	beq	a2,a3,80000154 <main+0x138>
80000138:	ff074583          	lbu	a1,-16(a4)
8000013c:	0006c783          	lbu	a5,0(a3)
80000140:	00170713          	addi	a4,a4,1
80000144:	00168693          	addi	a3,a3,1
80000148:	00b7c7b3          	xor	a5,a5,a1
8000014c:	fef70fa3          	sb	a5,-1(a4)
80000150:	fed614e3          	bne	a2,a3,80000138 <main+0x11c>
80000154:	00480813          	addi	a6,a6,4
80000158:	00488893          	addi	a7,a7,4
8000015c:	f5f814e3          	bne	a6,t6,800000a4 <main+0x88>
80000160:	00012623          	sw	zero,12(sp)
80000164:	00c12703          	lw	a4,12(sp)
80000168:	00900793          	li	a5,9
8000016c:	28e7e063          	bltu	a5,a4,800003ec <main+0x3d0>
80000170:	80000fb7          	lui	t6,0x80000
80000174:	80000437          	lui	s0,0x80000
80000178:	428f8f93          	addi	t6,t6,1064 # 80000428 <fromhost+0xf00003e8>
8000017c:	5f440413          	addi	s0,s0,1524 # 800005f4 <fromhost+0xf00005b4>
80000180:	02050893          	addi	a7,a0,32
80000184:	0a000293          	li	t0,160
80000188:	00900493          	li	s1,9
8000018c:	000e0313          	mv	t1,t3
80000190:	00090693          	mv	a3,s2
80000194:	000e0793          	mv	a5,t3
80000198:	0007c703          	lbu	a4,0(a5)
8000019c:	0006c603          	lbu	a2,0(a3)
800001a0:	00178793          	addi	a5,a5,1
800001a4:	00168693          	addi	a3,a3,1
800001a8:	00c74733          	xor	a4,a4,a2
800001ac:	fee78fa3          	sb	a4,-1(a5)
800001b0:	fef894e3          	bne	a7,a5,80000198 <main+0x17c>
800001b4:	00038f13          	mv	t5,t2
800001b8:	01000e93          	li	t4,16
800001bc:	000e0793          	mv	a5,t3
800001c0:	0007c703          	lbu	a4,0(a5)
800001c4:	00178793          	addi	a5,a5,1
800001c8:	00ef8733          	add	a4,t6,a4
800001cc:	00074703          	lbu	a4,0(a4)
800001d0:	fee78fa3          	sb	a4,-1(a5)
800001d4:	fef896e3          	bne	a7,a5,800001c0 <main+0x1a4>
800001d8:	01754703          	lbu	a4,23(a0)
800001dc:	01154a03          	lbu	s4,17(a0)
800001e0:	01554b83          	lbu	s7,21(a0)
800001e4:	01954c03          	lbu	s8,25(a0)
800001e8:	01d54b03          	lbu	s6,29(a0)
800001ec:	01254803          	lbu	a6,18(a0)
800001f0:	01a54a83          	lbu	s5,26(a0)
800001f4:	01654603          	lbu	a2,22(a0)
800001f8:	01e54583          	lbu	a1,30(a0)
800001fc:	01354783          	lbu	a5,19(a0)
80000200:	01f54983          	lbu	s3,31(a0)
80000204:	01b54683          	lbu	a3,27(a0)
80000208:	017508a3          	sb	s7,17(a0)
8000020c:	00e50da3          	sb	a4,27(a0)
80000210:	01850aa3          	sb	s8,21(a0)
80000214:	01650ca3          	sb	s6,25(a0)
80000218:	01450ea3          	sb	s4,29(a0)
8000021c:	01550923          	sb	s5,18(a0)
80000220:	01050d23          	sb	a6,26(a0)
80000224:	00b50b23          	sb	a1,22(a0)
80000228:	00c50f23          	sb	a2,30(a0)
8000022c:	013509a3          	sb	s3,19(a0)
80000230:	00d50fa3          	sb	a3,31(a0)
80000234:	00f50ba3          	sb	a5,23(a0)
80000238:	000e0713          	mv	a4,t3
8000023c:	00074c83          	lbu	s9,0(a4)
80000240:	013ac7b3          	xor	a5,s5,s3
80000244:	015bcc33          	xor	s8,s7,s5
80000248:	017ccdb3          	xor	s11,s9,s7
8000024c:	013cc833          	xor	a6,s9,s3
80000250:	001d9593          	slli	a1,s11,0x1
80000254:	018d9d13          	slli	s10,s11,0x18
80000258:	01879b13          	slli	s6,a5,0x18
8000025c:	001c1613          	slli	a2,s8,0x1
80000260:	00181a13          	slli	s4,a6,0x1
80000264:	018c1c13          	slli	s8,s8,0x18
80000268:	01881813          	slli	a6,a6,0x18
8000026c:	01859593          	slli	a1,a1,0x18
80000270:	418d5d13          	srai	s10,s10,0x18
80000274:	00179693          	slli	a3,a5,0x1
80000278:	418c5c13          	srai	s8,s8,0x18
8000027c:	418b5b13          	srai	s6,s6,0x18
80000280:	41885813          	srai	a6,a6,0x18
80000284:	01b7c7b3          	xor	a5,a5,s11
80000288:	4185d593          	srai	a1,a1,0x18
8000028c:	000d5463          	bgez	s10,80000294 <main+0x278>
80000290:	01b5c593          	xori	a1,a1,27
80000294:	00b7c5b3          	xor	a1,a5,a1
80000298:	0195c5b3          	xor	a1,a1,s9
8000029c:	01861613          	slli	a2,a2,0x18
800002a0:	00b70023          	sb	a1,0(a4)
800002a4:	41865613          	srai	a2,a2,0x18
800002a8:	000c5463          	bgez	s8,800002b0 <main+0x294>
800002ac:	01b64613          	xori	a2,a2,27
800002b0:	00c7c633          	xor	a2,a5,a2
800002b4:	01764633          	xor	a2,a2,s7
800002b8:	01869693          	slli	a3,a3,0x18
800002bc:	00c700a3          	sb	a2,1(a4)
800002c0:	4186d693          	srai	a3,a3,0x18
800002c4:	000b5463          	bgez	s6,800002cc <main+0x2b0>
800002c8:	01b6c693          	xori	a3,a3,27
800002cc:	00d7c6b3          	xor	a3,a5,a3
800002d0:	0156c6b3          	xor	a3,a3,s5
800002d4:	018a1a13          	slli	s4,s4,0x18
800002d8:	00d70123          	sb	a3,2(a4)
800002dc:	418a5a13          	srai	s4,s4,0x18
800002e0:	00085463          	bgez	a6,800002e8 <main+0x2cc>
800002e4:	01ba4a13          	xori	s4,s4,27
800002e8:	0147c7b3          	xor	a5,a5,s4
800002ec:	0137c7b3          	xor	a5,a5,s3
800002f0:	00f701a3          	sb	a5,3(a4)
800002f4:	00470713          	addi	a4,a4,4
800002f8:	00e88a63          	beq	a7,a4,8000030c <main+0x2f0>
800002fc:	00174b83          	lbu	s7,1(a4)
80000300:	00274a83          	lbu	s5,2(a4)
80000304:	00374983          	lbu	s3,3(a4)
80000308:	f35ff06f          	j	8000023c <main+0x220>
8000030c:	000f0713          	mv	a4,t5
80000310:	000e0793          	mv	a5,t3
80000314:	0007c683          	lbu	a3,0(a5)
80000318:	00074603          	lbu	a2,0(a4)
8000031c:	00178793          	addi	a5,a5,1
80000320:	00170713          	addi	a4,a4,1
80000324:	00c6c6b3          	xor	a3,a3,a2
80000328:	fed78fa3          	sb	a3,-1(a5)
8000032c:	fef894e3          	bne	a7,a5,80000314 <main+0x2f8>
80000330:	010e8e93          	addi	t4,t4,16
80000334:	010f0f13          	addi	t5,t5,16
80000338:	e85e92e3          	bne	t4,t0,800001bc <main+0x1a0>
8000033c:	000e0793          	mv	a5,t3
80000340:	0007c703          	lbu	a4,0(a5)
80000344:	00178793          	addi	a5,a5,1
80000348:	00ef8733          	add	a4,t6,a4
8000034c:	00074703          	lbu	a4,0(a4)
80000350:	fee78fa3          	sb	a4,-1(a5)
80000354:	fef896e3          	bne	a7,a5,80000340 <main+0x324>
80000358:	01754703          	lbu	a4,23(a0)
8000035c:	01154983          	lbu	s3,17(a0)
80000360:	01554b03          	lbu	s6,21(a0)
80000364:	01954a83          	lbu	s5,25(a0)
80000368:	01d54a03          	lbu	s4,29(a0)
8000036c:	01254e83          	lbu	t4,18(a0)
80000370:	01a54f03          	lbu	t5,26(a0)
80000374:	01654583          	lbu	a1,22(a0)
80000378:	01e54803          	lbu	a6,30(a0)
8000037c:	01354783          	lbu	a5,19(a0)
80000380:	01f54603          	lbu	a2,31(a0)
80000384:	01b54683          	lbu	a3,27(a0)
80000388:	016508a3          	sb	s6,17(a0)
8000038c:	00e50da3          	sb	a4,27(a0)
80000390:	01550aa3          	sb	s5,21(a0)
80000394:	01450ca3          	sb	s4,25(a0)
80000398:	01350ea3          	sb	s3,29(a0)
8000039c:	01e50923          	sb	t5,18(a0)
800003a0:	01d50d23          	sb	t4,26(a0)
800003a4:	01050b23          	sb	a6,22(a0)
800003a8:	00b50f23          	sb	a1,30(a0)
800003ac:	00c509a3          	sb	a2,19(a0)
800003b0:	00d50fa3          	sb	a3,31(a0)
800003b4:	00f50ba3          	sb	a5,23(a0)
800003b8:	00040713          	mv	a4,s0
800003bc:	00034783          	lbu	a5,0(t1)
800003c0:	00074683          	lbu	a3,0(a4)
800003c4:	00130313          	addi	t1,t1,1
800003c8:	00170713          	addi	a4,a4,1
800003cc:	00d7c7b3          	xor	a5,a5,a3
800003d0:	fef30fa3          	sb	a5,-1(t1)
800003d4:	fe6894e3          	bne	a7,t1,800003bc <main+0x3a0>
800003d8:	00c12783          	lw	a5,12(sp)
800003dc:	00178793          	addi	a5,a5,1
800003e0:	00f12623          	sw	a5,12(sp)
800003e4:	00c12783          	lw	a5,12(sp)
800003e8:	daf4f2e3          	bgeu	s1,a5,8000018c <main+0x170>
800003ec:	03c12403          	lw	s0,60(sp)
800003f0:	03812483          	lw	s1,56(sp)
800003f4:	03412903          	lw	s2,52(sp)
800003f8:	03012983          	lw	s3,48(sp)
800003fc:	02c12a03          	lw	s4,44(sp)
80000400:	02812a83          	lw	s5,40(sp)
80000404:	02412b03          	lw	s6,36(sp)
80000408:	02012b83          	lw	s7,32(sp)
8000040c:	01c12c03          	lw	s8,28(sp)
80000410:	01812c83          	lw	s9,24(sp)
80000414:	01412d03          	lw	s10,20(sp)
80000418:	01012d83          	lw	s11,16(sp)
8000041c:	00000513          	li	a0,0
80000420:	04010113          	addi	sp,sp,64
80000424:	00008067          	ret

Disassembly of section .rodata:

80000428 <sbox>:
80000428:	7b777c63          	bgeu	a4,s7,80000be0 <roundKeys.1+0x68c>
8000042c:	6bf2                	flw	fs7,28(sp)
8000042e:	0130c56f          	jal	a0,8000cc40 <roundKeys.1+0xc6ec>
80000432:	d7fe2b67          	0xd7fe2b67
80000436:	82ca76ab          	0x82ca76ab
8000043a:	7dc9                	lui	s11,0xffff2
8000043c:	59fa                	lw	s3,188(sp)
8000043e:	d4adf047          	fmsub.h	ft0,fs11,fa0,fs10
80000442:	afa2                	fsd	fs0,472(sp)
80000444:	a49c                	fsd	fa5,8(s1)
80000446:	c072                	sw	t3,0(sp)
80000448:	2693fdb7          	lui	s11,0x2693f
8000044c:	3f36                	fld	ft10,360(sp)
8000044e:	a534ccf7          	0xa534ccf7
80000452:	f1e5                	bnez	a1,80000432 <sbox+0xa>
80000454:	d871                	beqz	s0,80000428 <sbox>
80000456:	1531                	addi	a0,a0,-20
80000458:	c704                	sw	s1,8(a4)
8000045a:	9618c323          	0x9618c323
8000045e:	9a05                	andi	a2,a2,-31
80000460:	e2801207          	flh	ft4,-472(zero) # fffffe28 <fromhost+0x6ffffde8>
80000464:	75b227eb          	0x75b227eb
80000468:	8309                	srli	a4,a4,0x2
8000046a:	1a2c                	addi	a1,sp,312
8000046c:	a05a6e1b          	0xa05a6e1b
80000470:	3b52                	fld	fs6,304(sp)
80000472:	b3d6                	fsd	fs5,480(sp)
80000474:	e329                	bnez	a4,800004b6 <sbox+0x8e>
80000476:	d153842f          	0xd153842f
8000047a:	ed00                	fsw	fs0,24(a0)
8000047c:	fc20                	fsw	fs0,120(s0)
8000047e:	5bb1                	li	s7,-20
80000480:	cb6a                	sw	s10,148(sp)
80000482:	39be                	fld	fs3,488(sp)
80000484:	4c4a                	lw	s8,144(sp)
80000486:	cf58                	sw	a4,28(a4)
80000488:	efd0                	fsw	fa2,28(a5)
8000048a:	fbaa                	fsw	fa0,244(sp)
8000048c:	85334d43          	fmadd.h	fs10,ft6,fs3,fa6,rmm
80000490:	f945                	bnez	a0,80000440 <sbox+0x18>
80000492:	7f02                	flw	ft10,32(sp)
80000494:	3c50                	fld	fa2,184(s0)
80000496:	a89f a351 8f40      	0x8f40a351a89f
8000049c:	9d92                	add	s11,s11,tp
8000049e:	f538                	fsw	fa4,104(a0)
800004a0:	b6bc                	fsd	fa5,104(a3)
800004a2:	21da                	fld	ft3,400(sp)
800004a4:	ff10                	fsw	fa2,56(a4)
800004a6:	0ccdd2f3          	csrrwi	t0,0xcc,27
800004aa:	975fec13          	ori	s8,t6,-1675
800004ae:	1744                	addi	s1,sp,932
800004b0:	a7c4                	fsd	fs1,136(a5)
800004b2:	3d7e                	fld	fs10,504(sp)
800004b4:	5d64                	lw	s1,124(a0)
800004b6:	7319                	lui	t1,0xfffe6
800004b8:	8160                	0x8160
800004ba:	2a22dc4f          	fnmadd.d	fs8,ft5,ft2,ft5,unknown
800004be:	8890                	0x8890
800004c0:	ee46                	fsw	fa7,28(sp)
800004c2:	14b8                	addi	a4,sp,616
800004c4:	5ede                	lw	t4,244(sp)
800004c6:	32e0db0b          	0x32e0db0b
800004ca:	0a3a                	slli	s4,s4,0xe
800004cc:	0649                	addi	a2,a2,18
800004ce:	5c24                	lw	s1,120(s0)
800004d0:	d3c2                	sw	a6,228(sp)
800004d2:	62ac                	flw	fa1,64(a3)
800004d4:	9591                	srai	a1,a1,0x24
800004d6:	79e4                	flw	fs1,116(a1)
800004d8:	6d37c8e7          	0x6d37c8e7
800004dc:	d58d                	beqz	a1,80000406 <main+0x3ea>
800004de:	a94e                	fsd	fs3,144(sp)
800004e0:	566c                	lw	a1,108(a2)
800004e2:	eaf4                	fsw	fa3,84(a3)
800004e4:	7a65                	lui	s4,0xffff9
800004e6:	08ae                	slli	a7,a7,0xb
800004e8:	78ba                	flw	fa7,172(sp)
800004ea:	2e25                	jal	80000822 <roundKeys.1+0x2ce>
800004ec:	a61c                	fsd	fa5,8(a2)
800004ee:	c6b4                	sw	a3,72(a3)
800004f0:	dde8                	sw	a0,124(a1)
800004f2:	1f74                	addi	a3,sp,956
800004f4:	8a8bbd4b          	fnmsub.d	fs10,fs7,fs0,fa7,rup
800004f8:	3e70                	fld	fa2,248(a2)
800004fa:	66b5                	lui	a3,0xd
800004fc:	0348                	addi	a0,sp,388
800004fe:	0ef6                	slli	t4,t4,0x1d
80000500:	3561                	jal	80000388 <main+0x36c>
80000502:	c186b957          	0xc186b957
80000506:	9e1d                	0x9e1d
80000508:	f8e1                	bnez	s1,800004d8 <sbox+0xb0>
8000050a:	1198                	addi	a4,sp,224
8000050c:	d969                	beqz	a0,800004de <sbox+0xb6>
8000050e:	948e                	add	s1,s1,gp
80000510:	e9871e9b          	0xe9871e9b
80000514:	55ce                	lw	a1,240(sp)
80000516:	df28                	sw	a0,120(a4)
80000518:	a18c                	fsd	fa1,0(a1)
8000051a:	0d89                	addi	s11,s11,2
8000051c:	6842e6bf 0f2d9941 	0xf2d99416842e6bf
80000524:	54b0                	lw	a2,104(s1)
80000526:	          	0x20116bb

80000528 <rcon>:
80000528:	0201                	addi	tp,tp,0
8000052a:	0804                	addi	s1,sp,16
8000052c:	2010                	fld	fa2,0(s0)
8000052e:	8040                	0x8040
80000530:	          	0x361b

Disassembly of section .data:

80000534 <key.2>:
80000534:	0100                	addi	s0,sp,128
80000536:	0302                	c.slli64	t1
80000538:	0504                	addi	s1,sp,640
8000053a:	0706                	slli	a4,a4,0x1
8000053c:	0908                	addi	a0,sp,144
8000053e:	0b0a                	slli	s6,s6,0x2
80000540:	0d0c                	addi	a1,sp,656
80000542:	0f0e                	slli	t5,t5,0x3

80000544 <block.0>:
80000544:	1100                	addi	s0,sp,160
80000546:	3322                	fld	ft6,40(sp)
80000548:	5544                	lw	s1,44(a0)
8000054a:	7766                	flw	fa4,120(sp)
8000054c:	9988                	0x9988
8000054e:	bbaa                	fsd	fa0,496(sp)
80000550:	ddcc                	sw	a1,60(a1)
80000552:	ffee                	fsw	fs11,252(sp)

Disassembly of section .bss:

80000554 <roundKeys.1>:
	...

Disassembly of section .comment:

00000000 <.comment>:
   0:	3a434347          	fmsub.d	ft6,ft6,ft4,ft7,rmm
   4:	2820                	fld	fs0,80(s0)
   6:	69466953          	0x69466953
   a:	6576                	flw	fa0,92(sp)
   c:	4720                	lw	s0,72(a4)
   e:	4d2d4343          	fmadd.h	ft6,fs10,fs2,fs1,rmm
  12:	7465                	lui	s0,0xffff9
  14:	6c61                	lui	s8,0x18
  16:	3120                	fld	fs0,96(a0)
  18:	2e30                	fld	fa2,88(a2)
  1a:	2e32                	fld	ft8,264(sp)
  1c:	2d30                	fld	fa2,88(a0)
  1e:	3032                	fld	ft0,296(sp)
  20:	3032                	fld	ft0,296(sp)
  22:	312e                	fld	ft2,232(sp)
  24:	2e32                	fld	ft8,264(sp)
  26:	2938                	fld	fa4,80(a0)
  28:	3120                	fld	fs0,96(a0)
  2a:	2e30                	fld	fa2,88(a2)
  2c:	2e32                	fld	ft8,264(sp)
  2e:	0030                	addi	a2,sp,8

Disassembly of section .riscv.attributes:

00000000 <.riscv.attributes>:
   0:	2041                	jal	80 <_start-0x7fffff80>
   2:	0000                	unimp
   4:	7200                	flw	fs0,32(a2)
   6:	7369                	lui	t1,0xffffa
   8:	01007663          	bgeu	zero,a6,14 <_start-0x7fffffec>
   c:	0016                	c.slli	zero,0x5
   e:	0000                	unimp
  10:	1004                	addi	s1,sp,32
  12:	7205                	lui	tp,0xfffe1
  14:	3376                	fld	ft6,376(sp)
  16:	6932                	flw	fs2,12(sp)
  18:	7032                	flw	ft0,44(sp)
  1a:	5f30                	lw	a2,120(a4)
  1c:	326d                	jal	fffff9c6 <fromhost+0x6ffff986>
  1e:	3070                	fld	fa2,224(s0)
	...
